target datalayout = "e-m:e-p270:32:32-p271:32:32-p272:64:64-i64:64-i128:128-f80:128-n8:16:32:64-S128"
target triple = "x86_64-pc-linux-gnu"

%struct.Vec_Int_t_ = type { i32, i32, ptr }
%struct.Gia_ManUnr_t_ = type { ptr, ptr, ptr, ptr, ptr, ptr, ptr, ptr, ptr, ptr, i32 }

; Function Attrs: inlinehint nounwind uwtable
define internal void @Vec_IntFreeP(ptr noundef %0) #1 {
  %2 = alloca ptr, align 8
  store ptr %0, ptr %2, align 8, !tbaa !85
  %3 = load ptr, ptr %2, align 8, !tbaa !85
  %4 = load ptr, ptr %3, align 8, !tbaa !39
  %5 = icmp eq ptr %4, null
  br i1 %5, label %6, label %7

6:                                                ; preds = %1
  br label %32

7:                                                ; preds = %1
  %8 = load ptr, ptr %2, align 8, !tbaa !85
  %9 = load ptr, ptr %8, align 8, !tbaa !39
  %10 = getelementptr inbounds nuw %struct.Vec_Int_t_, ptr %9, i32 0, i32 2
  %11 = load ptr, ptr %10, align 8, !tbaa !49
  %12 = icmp ne ptr %11, null
  br i1 %12, label %13, label %21

13:                                               ; preds = %7
  %14 = load ptr, ptr %2, align 8, !tbaa !85
  %15 = load ptr, ptr %14, align 8, !tbaa !39
  %16 = getelementptr inbounds nuw %struct.Vec_Int_t_, ptr %15, i32 0, i32 2
  %17 = load ptr, ptr %16, align 8, !tbaa !49
  call void @free(ptr noundef %17) #12
  %18 = load ptr, ptr %2, align 8, !tbaa !85
  %19 = load ptr, ptr %18, align 8, !tbaa !39
  %20 = getelementptr inbounds nuw %struct.Vec_Int_t_, ptr %19, i32 0, i32 2
  store ptr null, ptr %20, align 8, !tbaa !49
  br label %22

21:                                               ; preds = %7
  br label %22

22:                                               ; preds = %21, %13
  %23 = load ptr, ptr %2, align 8, !tbaa !85
  %24 = load ptr, ptr %23, align 8, !tbaa !39
  %25 = icmp ne ptr %24, null
  br i1 %25, label %26, label %30

26:                                               ; preds = %22
  %27 = load ptr, ptr %2, align 8, !tbaa !85
  %28 = load ptr, ptr %27, align 8, !tbaa !39
  call void @free(ptr noundef %28) #12
  %29 = load ptr, ptr %2, align 8, !tbaa !85
  store ptr null, ptr %29, align 8, !tbaa !39
  br label %31

30:                                               ; preds = %22
  br label %31

31:                                               ; preds = %30, %26
  br label %32

32:                                               ; preds = %31, %6
  ret void
}

; Function Attrs: nounwind uwtable
define void @Gia_ManUnrollStop(ptr noundef %0) #0 {
  %2 = alloca ptr, align 8
  %3 = alloca ptr, align 8
  store ptr %0, ptr %2, align 8, !tbaa !61
  call void @llvm.lifetime.start.p0(i64 8, ptr %3) #12
  %4 = load ptr, ptr %2, align 8, !tbaa !61
  store ptr %4, ptr %3, align 8, !tbaa !65
  %5 = load ptr, ptr %3, align 8, !tbaa !65
  %6 = getelementptr inbounds nuw %struct.Gia_ManUnr_t_, ptr %5, i32 0, i32 2
  call void @Gia_ManStopP(ptr noundef %6)
  %7 = load ptr, ptr %3, align 8, !tbaa !65
  %8 = getelementptr inbounds nuw %struct.Gia_ManUnr_t_, ptr %7, i32 0, i32 3
  call void @Vec_IntFreeP(ptr noundef %8)
  %9 = load ptr, ptr %3, align 8, !tbaa !65
  %10 = getelementptr inbounds nuw %struct.Gia_ManUnr_t_, ptr %9, i32 0, i32 4
  call void @Vec_IntFreeP(ptr noundef %10)
  %11 = load ptr, ptr %3, align 8, !tbaa !65
  %12 = getelementptr inbounds nuw %struct.Gia_ManUnr_t_, ptr %11, i32 0, i32 5
  call void @Vec_IntFreeP(ptr noundef %12)
  %13 = load ptr, ptr %3, align 8, !tbaa !65
  %14 = getelementptr inbounds nuw %struct.Gia_ManUnr_t_, ptr %13, i32 0, i32 6
  call void @Vec_IntFreeP(ptr noundef %14)
  %15 = load ptr, ptr %3, align 8, !tbaa !65
  %16 = getelementptr inbounds nuw %struct.Gia_ManUnr_t_, ptr %15, i32 0, i32 7
  call void @Vec_IntFreeP(ptr noundef %16)
  %17 = load ptr, ptr %3, align 8, !tbaa !65
  %18 = getelementptr inbounds nuw %struct.Gia_ManUnr_t_, ptr %17, i32 0, i32 8
  call void @Vec_IntFreeP(ptr noundef %18)
  %19 = load ptr, ptr %3, align 8, !tbaa !65
  %20 = icmp ne ptr %19, null
  br i1 %20, label %21, label %23

21:                                               ; preds = %1
  %22 = load ptr, ptr %3, align 8, !tbaa !65
  call void @free(ptr noundef %22) #12
  store ptr null, ptr %3, align 8, !tbaa !65
  br label %24

23:                                               ; preds = %1
  br label %24

24:                                               ; preds = %23, %21
  call void @llvm.lifetime.end.p0(i64 8, ptr %3) #12
  ret void
}