; Function Attrs: nounwind uwtable
define void @Gia_ManUnrollStop(ptr noundef %0) local_unnamed_addr #0 {
  %2 = getelementptr inbounds nuw i8, ptr %0, i64 16
  tail call void @Gia_ManStopP(ptr noundef nonnull %2) #23
  %3 = getelementptr inbounds nuw i8, ptr %0, i64 24
  %4 = load ptr, ptr %3, align 8, !tbaa !75
  %5 = icmp eq ptr %4, null
  br i1 %5, label %Vec_IntFreeP.exit, label %6

6:                                                ; preds = %1
  %7 = getelementptr inbounds nuw i8, ptr %4, i64 8
  %8 = load ptr, ptr %7, align 8, !tbaa !33
  %.not.i = icmp eq ptr %8, null
  br i1 %.not.i, label %11, label %.thread.i

.thread.i:                                        ; preds = %6
  tail call void @free(ptr noundef nonnull %8) #23
  %9 = load ptr, ptr %3, align 8, !tbaa !75
  %10 = getelementptr inbounds nuw i8, ptr %9, i64 8
  store ptr null, ptr %10, align 8, !tbaa !33
  br label %11

11:                                               ; preds = %.thread.i, %6
  %12 = phi ptr [ %9, %.thread.i ], [ %4, %6 ]
  tail call void @free(ptr noundef nonnull %12) #23
  store ptr null, ptr %3, align 8, !tbaa !75
  br label %Vec_IntFreeP.exit

Vec_IntFreeP.exit:                                ; preds = %1, %11
  %13 = getelementptr inbounds nuw i8, ptr %0, i64 32
  %14 = load ptr, ptr %13, align 8, !tbaa !75
  %15 = icmp eq ptr %14, null
  br i1 %15, label %Vec_IntFreeP.exit12, label %16

16:                                               ; preds = %Vec_IntFreeP.exit
  %17 = getelementptr inbounds nuw i8, ptr %14, i64 8
  %18 = load ptr, ptr %17, align 8, !tbaa !33
  %.not.i10 = icmp eq ptr %18, null
  br i1 %.not.i10, label %21, label %.thread.i11

.thread.i11:                                      ; preds = %16
  tail call void @free(ptr noundef nonnull %18) #23
  %19 = load ptr, ptr %13, align 8, !tbaa !75
  %20 = getelementptr inbounds nuw i8, ptr %19, i64 8
  store ptr null, ptr %20, align 8, !tbaa !33
  br label %21

21:                                               ; preds = %.thread.i11, %16
  %22 = phi ptr [ %19, %.thread.i11 ], [ %14, %16 ]
  tail call void @free(ptr noundef nonnull %22) #23
  store ptr null, ptr %13, align 8, !tbaa !75
  br label %Vec_IntFreeP.exit12

Vec_IntFreeP.exit12:                              ; preds = %Vec_IntFreeP.exit, %21
  %23 = getelementptr inbounds nuw i8, ptr %0, i64 40
  %24 = load ptr, ptr %23, align 8, !tbaa !75
  %25 = icmp eq ptr %24, null
  br i1 %25, label %Vec_IntFreeP.exit15, label %26

26:                                               ; preds = %Vec_IntFreeP.exit12
  %27 = getelementptr inbounds nuw i8, ptr %24, i64 8
  %28 = load ptr, ptr %27, align 8, !tbaa !33
  %.not.i13 = icmp eq ptr %28, null
  br i1 %.not.i13, label %31, label %.thread.i14

.thread.i14:                                      ; preds = %26
  tail call void @free(ptr noundef nonnull %28) #23
  %29 = load ptr, ptr %23, align 8, !tbaa !75
  %30 = getelementptr inbounds nuw i8, ptr %29, i64 8
  store ptr null, ptr %30, align 8, !tbaa !33
  br label %31

31:                                               ; preds = %.thread.i14, %26
  %32 = phi ptr [ %29, %.thread.i14 ], [ %24, %26 ]
  tail call void @free(ptr noundef nonnull %32) #23
  store ptr null, ptr %23, align 8, !tbaa !75
  br label %Vec_IntFreeP.exit15

Vec_IntFreeP.exit15:                              ; preds = %Vec_IntFreeP.exit12, %31
  %33 = getelementptr inbounds nuw i8, ptr %0, i64 48
  %34 = load ptr, ptr %33, align 8, !tbaa !75
  %35 = icmp eq ptr %34, null
  br i1 %35, label %Vec_IntFreeP.exit18, label %36

36:                                               ; preds = %Vec_IntFreeP.exit15
  %37 = getelementptr inbounds nuw i8, ptr %34, i64 8
  %38 = load ptr, ptr %37, align 8, !tbaa !33
  %.not.i16 = icmp eq ptr %38, null
  br i1 %.not.i16, label %41, label %.thread.i17

.thread.i17:                                      ; preds = %36
  tail call void @free(ptr noundef nonnull %38) #23
  %39 = load ptr, ptr %33, align 8, !tbaa !75
  %40 = getelementptr inbounds nuw i8, ptr %39, i64 8
  store ptr null, ptr %40, align 8, !tbaa !33
  br label %41

41:                                               ; preds = %.thread.i17, %36
  %42 = phi ptr [ %39, %.thread.i17 ], [ %34, %36 ]
  tail call void @free(ptr noundef nonnull %42) #23
  store ptr null, ptr %33, align 8, !tbaa !75
  br label %Vec_IntFreeP.exit18

Vec_IntFreeP.exit18:                              ; preds = %Vec_IntFreeP.exit15, %41
  %43 = getelementptr inbounds nuw i8, ptr %0, i64 56
  %44 = load ptr, ptr %43, align 8, !tbaa !75
  %45 = icmp eq ptr %44, null
  br i1 %45, label %Vec_IntFreeP.exit21, label %46

46:                                               ; preds = %Vec_IntFreeP.exit18
  %47 = getelementptr inbounds nuw i8, ptr %44, i64 8
  %48 = load ptr, ptr %47, align 8, !tbaa !33
  %.not.i19 = icmp eq ptr %48, null
  br i1 %.not.i19, label %51, label %.thread.i20

.thread.i20:                                      ; preds = %46
  tail call void @free(ptr noundef nonnull %48) #23
  %49 = load ptr, ptr %43, align 8, !tbaa !75
  %50 = getelementptr inbounds nuw i8, ptr %49, i64 8
  store ptr null, ptr %50, align 8, !tbaa !33
  br label %51

51:                                               ; preds = %.thread.i20, %46
  %52 = phi ptr [ %49, %.thread.i20 ], [ %44, %46 ]
  tail call void @free(ptr noundef nonnull %52) #23
  store ptr null, ptr %43, align 8, !tbaa !75
  br label %Vec_IntFreeP.exit21

Vec_IntFreeP.exit21:                              ; preds = %Vec_IntFreeP.exit18, %51
  %53 = getelementptr inbounds nuw i8, ptr %0, i64 64
  %54 = load ptr, ptr %53, align 8, !tbaa !75
  %55 = icmp eq ptr %54, null
  br i1 %55, label %63, label %56

56:                                               ; preds = %Vec_IntFreeP.exit21
  %57 = getelementptr inbounds nuw i8, ptr %54, i64 8
  %58 = load ptr, ptr %57, align 8, !tbaa !33
  %.not.i22 = icmp eq ptr %58, null
  br i1 %.not.i22, label %61, label %.thread.i23

.thread.i23:                                      ; preds = %56
  tail call void @free(ptr noundef nonnull %58) #23
  %59 = load ptr, ptr %53, align 8, !tbaa !75
  %60 = getelementptr inbounds nuw i8, ptr %59, i64 8
  store ptr null, ptr %60, align 8, !tbaa !33
  br label %61

61:                                               ; preds = %.thread.i23, %56
  %62 = phi ptr [ %59, %.thread.i23 ], [ %54, %56 ]
  tail call void @free(ptr noundef nonnull %62) #23
  br label %63

63:                                               ; preds = %Vec_IntFreeP.exit21, %61
  tail call void @free(ptr noundef nonnull %0) #23
  ret void
}